; Function Attrs: mustprogress nofree norecurse nosync nounwind willreturn memory(write, argmem: readwrite, inaccessiblemem: none) uwtable
define noundef nonnull align 8 dereferenceable(16) ptr @_ZN5ZXing6Pdf4176Writer13setDimensionsEiiii(ptr noundef nonnull readonly returned align 8 captures(ret: address, provenance) dereferenceable(16) %0, i32 noundef %1, i32 noundef %2, i32 noundef %3, i32 noundef %4) local_unnamed_addr #8 align 2 {
  %6 = getelementptr inbounds nuw i8, ptr %0, i64 8
  %7 = load ptr, ptr %6, align 8, !tbaa !17
  %8 = getelementptr inbounds nuw i8, ptr %7, i64 12
  store i32 %1, ptr %8, align 4, !tbaa !80
  %9 = getelementptr inbounds nuw i8, ptr %7, i64 16
  store i32 %2, ptr %9, align 4, !tbaa !81
  %10 = getelementptr inbounds nuw i8, ptr %7, i64 20
  store i32 %3, ptr %10, align 4, !tbaa !82
  %11 = getelementptr inbounds nuw i8, ptr %7, i64 24
  store i32 %4, ptr %11, align 4, !tbaa !83
  ret ptr %0
}